target datalayout = "e-m:e-p270:32:32-p271:32:32-p272:64:64-i64:64-i128:128-f80:128-n8:16:32:64-S128"
target triple = "x86_64-pc-linux-gnu"

@node_record_count = external global i32, align 4

; Function Attrs: nounwind uwtable
define dso_local void @core_array_or(ptr noundef %0, ptr noundef %1) #0 {
  %3 = alloca ptr, align 8
  %4 = alloca ptr, align 8
  %5 = alloca i32, align 4
  %6 = alloca i32, align 4
  %7 = alloca i32, align 4
  store ptr %0, ptr %3, align 8
  store ptr %1, ptr %4, align 8
  call void @llvm.lifetime.start.p0(i64 4, ptr %5) #3
  call void @llvm.lifetime.start.p0(i64 4, ptr %6) #3
  call void @llvm.lifetime.start.p0(i64 4, ptr %7) #3
  store i32 0, ptr %5, align 4
  br label %8

8:                                                ; preds = %96, %2
  %9 = load i32, ptr %5, align 4
  %10 = load i32, ptr @node_record_count, align 4
  %11 = icmp slt i32 %9, %10
  br i1 %11, label %12, label %99

12:                                               ; preds = %8
  %13 = load ptr, ptr %3, align 8
  %14 = load i32, ptr %5, align 4
  %15 = sext i32 %14 to i64
  %16 = getelementptr inbounds ptr, ptr %13, i64 %15
  %17 = load ptr, ptr %16, align 8
  %18 = icmp ne ptr %17, null
  br i1 %18, label %19, label %76

19:                                               ; preds = %12
  %20 = load ptr, ptr %4, align 8
  %21 = load i32, ptr %5, align 4
  %22 = sext i32 %21 to i64
  %23 = getelementptr inbounds ptr, ptr %20, i64 %22
  %24 = load ptr, ptr %23, align 8
  %25 = icmp ne ptr %24, null
  br i1 %25, label %26, label %76

26:                                               ; preds = %19
  %27 = load ptr, ptr %3, align 8
  %28 = load i32, ptr %5, align 4
  %29 = sext i32 %28 to i64
  %30 = getelementptr inbounds ptr, ptr %27, i64 %29
  %31 = load ptr, ptr %30, align 8
  %32 = call i64 @bit_size(ptr noundef %31)
  %33 = trunc i64 %32 to i32
  store i32 %33, ptr %6, align 4
  %34 = load ptr, ptr %4, align 8
  %35 = load i32, ptr %5, align 4
  %36 = sext i32 %35 to i64
  %37 = getelementptr inbounds ptr, ptr %34, i64 %36
  %38 = load ptr, ptr %37, align 8
  %39 = call i64 @bit_size(ptr noundef %38)
  %40 = trunc i64 %39 to i32
  store i32 %40, ptr %7, align 4
  %41 = load i32, ptr %6, align 4
  %42 = load i32, ptr %7, align 4
  %43 = icmp sgt i32 %41, %42
  br i1 %43, label %44, label %52

44:                                               ; preds = %26
  %45 = load ptr, ptr %4, align 8
  %46 = load i32, ptr %5, align 4
  %47 = sext i32 %46 to i64
  %48 = getelementptr inbounds ptr, ptr %45, i64 %47
  %49 = load i32, ptr %6, align 4
  %50 = sext i32 %49 to i64
  %51 = call ptr @slurm_bit_realloc(ptr noundef %48, i64 noundef %50)
  br label %65

52:                                               ; preds = %26
  %53 = load i32, ptr %6, align 4
  %54 = load i32, ptr %7, align 4
  %55 = icmp slt i32 %53, %54
  br i1 %55, label %56, label %64

56:                                               ; preds = %52
  %57 = load ptr, ptr %3, align 8
  %58 = load i32, ptr %5, align 4
  %59 = sext i32 %58 to i64
  %60 = getelementptr inbounds ptr, ptr %57, i64 %59
  %61 = load i32, ptr %7, align 4
  %62 = sext i32 %61 to i64
  %63 = call ptr @slurm_bit_realloc(ptr noundef %60, i64 noundef %62)
  br label %64

64:                                               ; preds = %56, %52
  br label %65

65:                                               ; preds = %64, %44
  %66 = load ptr, ptr %3, align 8
  %67 = load i32, ptr %5, align 4
  %68 = sext i32 %67 to i64
  %69 = getelementptr inbounds ptr, ptr %66, i64 %68
  %70 = load ptr, ptr %69, align 8
  %71 = load ptr, ptr %4, align 8
  %72 = load i32, ptr %5, align 4
  %73 = sext i32 %72 to i64
  %74 = getelementptr inbounds ptr, ptr %71, i64 %73
  %75 = load ptr, ptr %74, align 8
  call void @bit_or(ptr noundef %70, ptr noundef %75)
  br label %95

76:                                               ; preds = %19, %12
  %77 = load ptr, ptr %4, align 8
  %78 = load i32, ptr %5, align 4
  %79 = sext i32 %78 to i64
  %80 = getelementptr inbounds ptr, ptr %77, i64 %79
  %81 = load ptr, ptr %80, align 8
  %82 = icmp ne ptr %81, null
  br i1 %82, label %83, label %94

83:                                               ; preds = %76
  %84 = load ptr, ptr %4, align 8
  %85 = load i32, ptr %5, align 4
  %86 = sext i32 %85 to i64
  %87 = getelementptr inbounds ptr, ptr %84, i64 %86
  %88 = load ptr, ptr %87, align 8
  %89 = call ptr @bit_copy(ptr noundef %88)
  %90 = load ptr, ptr %3, align 8
  %91 = load i32, ptr %5, align 4
  %92 = sext i32 %91 to i64
  %93 = getelementptr inbounds ptr, ptr %90, i64 %92
  store ptr %89, ptr %93, align 8
  br label %94

94:                                               ; preds = %83, %76
  br label %95

95:                                               ; preds = %94, %65
  br label %96

96:                                               ; preds = %95
  %97 = load i32, ptr %5, align 4
  %98 = add nsw i32 %97, 1
  store i32 %98, ptr %5, align 4
  br label %8, !llvm.loop !16

99:                                               ; preds = %8
  call void @llvm.lifetime.end.p0(i64 4, ptr %7) #3
  call void @llvm.lifetime.end.p0(i64 4, ptr %6) #3
  call void @llvm.lifetime.end.p0(i64 4, ptr %5) #3
  ret void
}