; Function Attrs: nounwind uwtable
define dso_local void @core_array_or(ptr noundef %0, ptr noundef %1) local_unnamed_addr #0 {
  %3 = load i32, ptr @node_record_count, align 4
  %4 = icmp sgt i32 %3, 0
  br i1 %4, label %.lr.ph, label %._crit_edge

.lr.ph:                                           ; preds = %2, %.thread
  %indvars.iv = phi i64 [ %indvars.iv.next, %.thread ], [ 0, %2 ]
  %5 = getelementptr inbounds nuw ptr, ptr %0, i64 %indvars.iv
  %6 = load ptr, ptr %5, align 8
  %.not = icmp eq ptr %6, null
  %.phi.trans.insert = getelementptr inbounds nuw ptr, ptr %1, i64 %indvars.iv
  %.pre = load ptr, ptr %.phi.trans.insert, align 8
  %.not34 = icmp eq ptr %.pre, null
  br i1 %.not, label %22, label %7

7:                                                ; preds = %.lr.ph
  br i1 %.not34, label %.thread, label %8

8:                                                ; preds = %7
  %9 = tail call i64 @bit_size(ptr noundef nonnull %6) #3
  %10 = trunc i64 %9 to i32
  %11 = load ptr, ptr %.phi.trans.insert, align 8
  %12 = tail call i64 @bit_size(ptr noundef %11) #3
  %13 = trunc i64 %12 to i32
  %14 = icmp sgt i32 %10, %13
  br i1 %14, label %.sink.split, label %15

15:                                               ; preds = %8
  %16 = icmp slt i32 %10, %13
  br i1 %16, label %.sink.split, label %19

.sink.split:                                      ; preds = %15, %8
  %.sink40 = phi i64 [ %9, %8 ], [ %12, %15 ]
  %.sink = phi ptr [ %.phi.trans.insert, %8 ], [ %5, %15 ]
  %sext = shl i64 %.sink40, 32
  %17 = ashr exact i64 %sext, 32
  %18 = tail call ptr @slurm_bit_realloc(ptr noundef nonnull %.sink, i64 noundef %17) #3
  br label %19

19:                                               ; preds = %.sink.split, %15
  %20 = load ptr, ptr %5, align 8
  %21 = load ptr, ptr %.phi.trans.insert, align 8
  tail call void @bit_or(ptr noundef %20, ptr noundef %21) #3
  br label %.thread

22:                                               ; preds = %.lr.ph
  br i1 %.not34, label %.thread, label %23

23:                                               ; preds = %22
  %24 = tail call ptr @bit_copy(ptr noundef nonnull %.pre) #3
  store ptr %24, ptr %5, align 8
  br label %.thread

.thread:                                          ; preds = %7, %19, %23, %22
  %indvars.iv.next = add nuw nsw i64 %indvars.iv, 1
  %25 = load i32, ptr @node_record_count, align 4
  %26 = sext i32 %25 to i64
  %27 = icmp slt i64 %indvars.iv.next, %26
  br i1 %27, label %.lr.ph, label %._crit_edge, !llvm.loop !16

._crit_edge:                                      ; preds = %.thread, %2
  ret void
}